; Function Attrs: mustprogress uwtable
define noundef ptr @ubidi_openSized_77(i32 noundef %0, i32 noundef %1, ptr noundef %2) local_unnamed_addr #0 {
  %4 = icmp eq ptr %2, null
  br i1 %4, label %43, label %5

5:                                                ; preds = %3
  %6 = load i32, ptr %2, align 4, !tbaa !23
  %7 = icmp slt i32 %6, 1
  br i1 %7, label %8, label %43

8:                                                ; preds = %5
  %9 = or i32 %1, %0
  %or.cond.not = icmp sgt i32 %9, -1
  br i1 %or.cond.not, label %11, label %10

10:                                               ; preds = %8
  store i32 1, ptr %2, align 4, !tbaa !23
  br label %43

11:                                               ; preds = %8
  %12 = tail call noalias dereferenceable_or_null(464) ptr @uprv_malloc_77(i64 noundef 464) #16
  %13 = icmp eq ptr %12, null
  br i1 %13, label %14, label %15

14:                                               ; preds = %11
  store i32 7, ptr %2, align 4, !tbaa !23
  br label %43

15:                                               ; preds = %11
  tail call void @llvm.memset.p0.i64(ptr noundef nonnull align 8 dereferenceable(464) %12, i8 0, i64 464, i1 false)
  %16 = icmp sgt i32 %0, 0
  br i1 %16, label %17, label %27

17:                                               ; preds = %15
  %18 = getelementptr inbounds nuw i8, ptr %12, i64 56
  %19 = zext nneg i32 %0 to i64
  %20 = tail call noalias ptr @uprv_malloc_77(i64 noundef %19) #16
  store ptr %20, ptr %18, align 8, !tbaa !24
  %.not22.i = icmp eq ptr %20, null
  br i1 %.not22.i, label %ubidi_getMemory_77.exit.thread, label %21

21:                                               ; preds = %17
  %22 = getelementptr inbounds nuw i8, ptr %12, i64 28
  store i32 %0, ptr %22, align 4, !tbaa !25
  %23 = getelementptr inbounds nuw i8, ptr %12, i64 64
  %24 = zext nneg i32 %0 to i64
  %25 = tail call noalias ptr @uprv_malloc_77(i64 noundef %24) #16
  store ptr %25, ptr %23, align 8, !tbaa !24
  %.not22.i41 = icmp eq ptr %25, null
  br i1 %.not22.i41, label %ubidi_getMemory_77.exit.thread, label %.sink.split.i40

.sink.split.i40:                                  ; preds = %21
  %26 = getelementptr inbounds nuw i8, ptr %12, i64 32
  store i32 %0, ptr %26, align 4, !tbaa !25
  br label %ubidi_getMemory_77.exit42

ubidi_getMemory_77.exit.thread:                   ; preds = %21, %17
  store i32 7, ptr %2, align 4, !tbaa !23
  br label %ubidi_getMemory_77.exit42

27:                                               ; preds = %15
  %28 = getelementptr inbounds nuw i8, ptr %12, i64 104
  store i8 1, ptr %28, align 8, !tbaa !3
  br label %ubidi_getMemory_77.exit42

ubidi_getMemory_77.exit42:                        ; preds = %.sink.split.i40, %ubidi_getMemory_77.exit.thread, %27
  %29 = icmp sgt i32 %1, 0
  br i1 %29, label %30, label %39

30:                                               ; preds = %ubidi_getMemory_77.exit42
  %31 = icmp eq i32 %1, 1
  %32 = getelementptr inbounds nuw i8, ptr %12, i64 44
  br i1 %31, label %33, label %34

33:                                               ; preds = %30
  store i32 12, ptr %32, align 4, !tbaa !26
  br label %ubidi_getMemory_77.exit48

34:                                               ; preds = %30
  %35 = mul i32 %1, 12
  %36 = getelementptr inbounds nuw i8, ptr %12, i64 88
  %37 = sext i32 %35 to i64
  %38 = tail call noalias ptr @uprv_malloc_77(i64 noundef %37) #16
  store ptr %38, ptr %36, align 8, !tbaa !24
  %.not22.i47 = icmp eq ptr %38, null
  br i1 %.not22.i47, label %ubidi_getMemory_77.exit48.thread, label %.sink.split.i46

.sink.split.i46:                                  ; preds = %34
  store i32 %35, ptr %32, align 4, !tbaa !25
  br label %ubidi_getMemory_77.exit48

ubidi_getMemory_77.exit48.thread:                 ; preds = %34
  store i32 7, ptr %2, align 4, !tbaa !23
  br label %42

39:                                               ; preds = %ubidi_getMemory_77.exit42
  %40 = getelementptr inbounds nuw i8, ptr %12, i64 105
  store i8 1, ptr %40, align 1, !tbaa !22
  br label %ubidi_getMemory_77.exit48

ubidi_getMemory_77.exit48:                        ; preds = %.sink.split.i46, %33, %39
  %.pr = load i32, ptr %2, align 4, !tbaa !23
  %41 = icmp sgt i32 %.pr, 0
  br i1 %41, label %42, label %43

42:                                               ; preds = %ubidi_getMemory_77.exit48.thread, %ubidi_getMemory_77.exit48
  tail call void @ubidi_close_77(ptr noundef nonnull %12)
  br label %43

43:                                               ; preds = %ubidi_getMemory_77.exit48, %3, %5, %42, %14, %10
  %.0 = phi ptr [ null, %10 ], [ null, %14 ], [ null, %42 ], [ null, %5 ], [ null, %3 ], [ %12, %ubidi_getMemory_77.exit48 ]
  ret ptr %.0
}